target datalayout = "e-m:e-p270:32:32-p271:32:32-p272:64:64-i64:64-i128:128-f80:128-n8:16:32:64-S128"
target triple = "x86_64-pc-linux-gnu"

%struct.blob = type { ptr, ptr, i64, i64, i32 }
%struct.stat = type { i64, i64, i64, i32, i32, i32, i32, i64, i64, i64, i64, %struct.timespec, %struct.timespec, %struct.timespec, [3 x i64] }
%struct.timespec = type { i64, i64 }
%struct.fileblob = type { ptr, i32, %struct.blob, ptr, ptr, i64, i8 }

@.str.32 = private unnamed_addr constant [32 x i8] c"fileblobScan, fullname == NULL\0A\00", align 1
@.str.33 = private unnamed_addr constant [27 x i8] c"fileblobScan, ctx == NULL\0A\00", align 1

; Function Attrs: nounwind uwtable
define i32 @fileblobScan(ptr noundef %0) #0 {
  %2 = alloca i32, align 4
  %3 = alloca ptr, align 8
  %4 = alloca i32, align 4
  %5 = alloca %struct.stat, align 8
  store ptr %0, ptr %3, align 8
  %6 = load ptr, ptr %3, align 8
  %7 = getelementptr inbounds %struct.fileblob, ptr %6, i32 0, i32 6
  %8 = load i8, ptr %7, align 8
  %9 = lshr i8 %8, 1
  %10 = and i8 %9, 1
  %11 = zext i8 %10 to i32
  %12 = icmp ne i32 %11, 0
  br i1 %12, label %13, label %14

13:                                               ; preds = %1
  store i32 1, ptr %2, align 4
  br label %80

14:                                               ; preds = %1
  %15 = load ptr, ptr %3, align 8
  %16 = getelementptr inbounds %struct.fileblob, ptr %15, i32 0, i32 0
  %17 = load ptr, ptr %16, align 8
  %18 = icmp eq ptr %17, null
  br i1 %18, label %24, label %19

19:                                               ; preds = %14
  %20 = load ptr, ptr %3, align 8
  %21 = getelementptr inbounds %struct.fileblob, ptr %20, i32 0, i32 3
  %22 = load ptr, ptr %21, align 8
  %23 = icmp eq ptr %22, null
  br i1 %23, label %24, label %25

24:                                               ; preds = %19, %14
  call void (ptr, ...) @cli_warnmsg(ptr noundef @.str.32)
  store i32 2, ptr %2, align 4
  br label %80

25:                                               ; preds = %19
  %26 = load ptr, ptr %3, align 8
  %27 = getelementptr inbounds %struct.fileblob, ptr %26, i32 0, i32 4
  %28 = load ptr, ptr %27, align 8
  %29 = icmp eq ptr %28, null
  br i1 %29, label %30, label %31

30:                                               ; preds = %25
  call void (ptr, ...) @cli_dbgmsg(ptr noundef @.str.33)
  store i32 0, ptr %2, align 4
  br label %80

31:                                               ; preds = %25
  %32 = load ptr, ptr %3, align 8
  %33 = getelementptr inbounds %struct.fileblob, ptr %32, i32 0, i32 0
  %34 = load ptr, ptr %33, align 8
  %35 = call i32 @fflush(ptr noundef %34)
  %36 = load ptr, ptr %3, align 8
  %37 = getelementptr inbounds %struct.fileblob, ptr %36, i32 0, i32 1
  %38 = load i32, ptr %37, align 8
  %39 = call i64 @lseek(i32 noundef %38, i64 noundef 0, i32 noundef 0) #9
  %40 = load ptr, ptr %3, align 8
  %41 = getelementptr inbounds %struct.fileblob, ptr %40, i32 0, i32 1
  %42 = load i32, ptr %41, align 8
  %43 = call i32 @fstat(i32 noundef %42, ptr noundef %5) #9
  %44 = load ptr, ptr %3, align 8
  %45 = getelementptr inbounds %struct.fileblob, ptr %44, i32 0, i32 4
  %46 = load ptr, ptr %45, align 8
  %47 = load ptr, ptr %3, align 8
  %48 = getelementptr inbounds %struct.fileblob, ptr %47, i32 0, i32 2
  %49 = getelementptr inbounds %struct.blob, ptr %48, i32 0, i32 0
  %50 = load ptr, ptr %49, align 8
  %51 = getelementptr inbounds %struct.stat, ptr %5, i32 0, i32 8
  %52 = load i64, ptr %51, align 8
  %53 = getelementptr inbounds %struct.stat, ptr %5, i32 0, i32 8
  %54 = load i64, ptr %53, align 8
  %55 = call i32 @cli_matchmeta(ptr noundef %46, ptr noundef %50, i64 noundef %52, i64 noundef %54, i32 noundef 0, i32 noundef 0, i32 noundef 0)
  store i32 %55, ptr %4, align 4
  %56 = load i32, ptr %4, align 4
  %57 = icmp ne i32 %56, 0
  br i1 %57, label %58, label %60

58:                                               ; preds = %31
  %59 = load i32, ptr %4, align 4
  store i32 %59, ptr %2, align 4
  br label %80

60:                                               ; preds = %31
  %61 = load ptr, ptr %3, align 8
  %62 = getelementptr inbounds %struct.fileblob, ptr %61, i32 0, i32 1
  %63 = load i32, ptr %62, align 8
  %64 = load ptr, ptr %3, align 8
  %65 = getelementptr inbounds %struct.fileblob, ptr %64, i32 0, i32 3
  %66 = load ptr, ptr %65, align 8
  %67 = load ptr, ptr %3, align 8
  %68 = getelementptr inbounds %struct.fileblob, ptr %67, i32 0, i32 4
  %69 = load ptr, ptr %68, align 8
  %70 = load ptr, ptr %3, align 8
  %71 = getelementptr inbounds %struct.fileblob, ptr %70, i32 0, i32 2
  %72 = getelementptr inbounds %struct.blob, ptr %71, i32 0, i32 0
  %73 = load ptr, ptr %72, align 8
  %74 = call i32 @cli_magic_scan_desc(i32 noundef %63, ptr noundef %66, ptr noundef %69, ptr noundef %73, i32 noundef 0)
  store i32 %74, ptr %4, align 4
  %75 = load i32, ptr %4, align 4
  %76 = icmp ne i32 %75, 0
  br i1 %76, label %77, label %79

77:                                               ; preds = %60
  %78 = load i32, ptr %4, align 4
  store i32 %78, ptr %2, align 4
  br label %80

79:                                               ; preds = %60
  store i32 22, ptr %2, align 4
  br label %80

80:                                               ; preds = %79, %77, %58, %30, %24, %13
  %81 = load i32, ptr %2, align 4
  ret i32 %81
}