; Function Attrs: nounwind uwtable
define i32 @fileblobScan(ptr nocapture noundef readonly %0) local_unnamed_addr #2 {
  %2 = alloca %struct.stat, align 8
  %3 = getelementptr inbounds i8, ptr %0, i64 80
  %4 = load i8, ptr %3, align 8
  %5 = and i8 %4, 2
  %.not = icmp eq i8 %5, 0
  br i1 %.not, label %6, label %38

6:                                                ; preds = %1
  %7 = load ptr, ptr %0, align 8
  %8 = icmp eq ptr %7, null
  br i1 %8, label %13, label %9

9:                                                ; preds = %6
  %10 = getelementptr inbounds i8, ptr %0, i64 56
  %11 = load ptr, ptr %10, align 8
  %12 = icmp eq ptr %11, null
  br i1 %12, label %13, label %14

13:                                               ; preds = %9, %6
  tail call void (ptr, ...) @cli_warnmsg(ptr noundef nonnull @.str.32) #16
  br label %38

14:                                               ; preds = %9
  %15 = getelementptr inbounds i8, ptr %0, i64 64
  %16 = load ptr, ptr %15, align 8
  %17 = icmp eq ptr %16, null
  br i1 %17, label %18, label %19

18:                                               ; preds = %14
  tail call void (ptr, ...) @cli_dbgmsg(ptr noundef nonnull @.str.33) #16
  br label %38

19:                                               ; preds = %14
  %20 = tail call i32 @fflush(ptr noundef nonnull %7)
  %21 = getelementptr inbounds i8, ptr %0, i64 8
  %22 = load i32, ptr %21, align 8
  %23 = tail call i64 @lseek(i32 noundef %22, i64 noundef 0, i32 noundef 0) #16
  %24 = load i32, ptr %21, align 8
  %25 = call i32 @fstat(i32 noundef %24, ptr noundef nonnull %2) #16
  %26 = load ptr, ptr %15, align 8
  %27 = getelementptr inbounds i8, ptr %0, i64 16
  %28 = load ptr, ptr %27, align 8
  %29 = getelementptr inbounds i8, ptr %2, i64 48
  %30 = load i64, ptr %29, align 8
  %31 = tail call i32 @cli_matchmeta(ptr noundef %26, ptr noundef %28, i64 noundef %30, i64 noundef %30, i32 noundef 0, i32 noundef 0, i32 noundef 0) #16
  %.not20 = icmp eq i32 %31, 0
  br i1 %.not20, label %32, label %38

32:                                               ; preds = %19
  %33 = load i32, ptr %21, align 8
  %34 = load ptr, ptr %10, align 8
  %35 = load ptr, ptr %15, align 8
  %36 = load ptr, ptr %27, align 8
  %37 = tail call i32 @cli_magic_scan_desc(i32 noundef %33, ptr noundef %34, ptr noundef %35, ptr noundef %36, i32 noundef 0) #16
  %.not21 = icmp eq i32 %37, 0
  %. = select i1 %.not21, i32 22, i32 %37
  br label %38

38:                                               ; preds = %32, %19, %1, %18, %13
  %.0 = phi i32 [ 2, %13 ], [ 0, %18 ], [ 1, %1 ], [ %31, %19 ], [ %., %32 ]
  ret i32 %.0
}